target datalayout = "e-m:e-p270:32:32-p271:32:32-p272:64:64-i64:64-i128:128-f80:128-n8:16:32:64-S128"
target triple = "x86_64-pc-linux-gnu"

%struct.Aig_Obj_t_ = type { %union.anon, ptr, ptr, i64, i32, i32, %union.anon.0 }
%union.anon = type { ptr }
%union.anon.0 = type { ptr }
%struct.Aig_Man_t_ = type { ptr, ptr, ptr, ptr, ptr, ptr, ptr, %struct.Aig_Obj_t_, i32, i32, i32, i32, i32, i32, [7 x i32], i32, ptr, i32, ptr, i32, ptr, i32, i32, i32, ptr, i32, i32, i32, i32, i32, ptr, ptr, i32, ptr, ptr, i32, ptr, ptr, i32, i32, i32, ptr, ptr, ptr, ptr, ptr, ptr, ptr, ptr, ptr, ptr, ptr, ptr, ptr, ptr, i32, ptr, ptr, ptr, ptr, i32, i64, i64, i64, ptr, ptr }
%struct.Iso_Man_t_ = type { ptr, ptr, i32, i32, i32, i32, i32, i32, ptr, ptr, ptr, ptr, ptr, i64, i64, i64, i64, i64 }
%struct.Vec_Ptr_t_ = type { i32, i32, ptr }
%struct.Iso_Obj_t_ = type { i32, i32, i32, i32, i32, i32 }

; Function Attrs: inlinehint nounwind uwtable
define internal void @Vec_PtrGrow(ptr noundef %0, i32 noundef %1) #4 {
  %3 = alloca ptr, align 8
  %4 = alloca i32, align 4
  store ptr %0, ptr %3, align 8, !tbaa !57
  store i32 %1, ptr %4, align 4, !tbaa !8
  %5 = load ptr, ptr %3, align 8, !tbaa !57
  %6 = getelementptr inbounds nuw %struct.Vec_Ptr_t_, ptr %5, i32 0, i32 0
  %7 = load i32, ptr %6, align 8, !tbaa !60
  %8 = load i32, ptr %4, align 4, !tbaa !8
  %9 = icmp sge i32 %7, %8
  br i1 %9, label %10, label %11

10:                                               ; preds = %2
  br label %36

11:                                               ; preds = %2
  %12 = load ptr, ptr %3, align 8, !tbaa !57
  %13 = getelementptr inbounds nuw %struct.Vec_Ptr_t_, ptr %12, i32 0, i32 2
  %14 = load ptr, ptr %13, align 8, !tbaa !61
  %15 = icmp ne ptr %14, null
  br i1 %15, label %16, label %24

16:                                               ; preds = %11
  %17 = load ptr, ptr %3, align 8, !tbaa !57
  %18 = getelementptr inbounds nuw %struct.Vec_Ptr_t_, ptr %17, i32 0, i32 2
  %19 = load ptr, ptr %18, align 8, !tbaa !61
  %20 = load i32, ptr %4, align 4, !tbaa !8
  %21 = sext i32 %20 to i64
  %22 = mul i64 8, %21
  %23 = call ptr @realloc(ptr noundef %19, i64 noundef %22) #15
  br label %29

24:                                               ; preds = %11
  %25 = load i32, ptr %4, align 4, !tbaa !8
  %26 = sext i32 %25 to i64
  %27 = mul i64 8, %26
  %28 = call noalias ptr @malloc(i64 noundef %27) #13
  br label %29

29:                                               ; preds = %24, %16
  %30 = phi ptr [ %23, %16 ], [ %28, %24 ]
  %31 = load ptr, ptr %3, align 8, !tbaa !57
  %32 = getelementptr inbounds nuw %struct.Vec_Ptr_t_, ptr %31, i32 0, i32 2
  store ptr %30, ptr %32, align 8, !tbaa !61
  %33 = load i32, ptr %4, align 4, !tbaa !8
  %34 = load ptr, ptr %3, align 8, !tbaa !57
  %35 = getelementptr inbounds nuw %struct.Vec_Ptr_t_, ptr %34, i32 0, i32 0
  store i32 %33, ptr %35, align 8, !tbaa !60
  br label %36

36:                                               ; preds = %29, %10
  ret void
}

; Function Attrs: inlinehint nounwind uwtable
define internal ptr @Aig_ManObj(ptr noundef %0, i32 noundef %1) #4 {
  %3 = alloca ptr, align 8
  %4 = alloca i32, align 4
  store ptr %0, ptr %3, align 8, !tbaa !21
  store i32 %1, ptr %4, align 4, !tbaa !8
  %5 = load ptr, ptr %3, align 8, !tbaa !21
  %6 = getelementptr inbounds nuw %struct.Aig_Man_t_, ptr %5, i32 0, i32 4
  %7 = load ptr, ptr %6, align 8, !tbaa !54
  %8 = icmp ne ptr %7, null
  br i1 %8, label %9, label %15

9:                                                ; preds = %2
  %10 = load ptr, ptr %3, align 8, !tbaa !21
  %11 = getelementptr inbounds nuw %struct.Aig_Man_t_, ptr %10, i32 0, i32 4
  %12 = load ptr, ptr %11, align 8, !tbaa !54
  %13 = load i32, ptr %4, align 4, !tbaa !8
  %14 = call ptr @Vec_PtrEntry(ptr noundef %12, i32 noundef %13)
  br label %16

15:                                               ; preds = %2
  br label %16

16:                                               ; preds = %15, %9
  %17 = phi ptr [ %14, %9 ], [ null, %15 ]
  ret ptr %17
}

; Function Attrs: inlinehint nounwind uwtable
define internal i32 @Iso_ObjId(ptr noundef %0, ptr noundef %1) #4 {
  %3 = alloca ptr, align 8
  %4 = alloca ptr, align 8
  store ptr %0, ptr %3, align 8, !tbaa !40
  store ptr %1, ptr %4, align 8, !tbaa !69
  %5 = load ptr, ptr %4, align 8, !tbaa !69
  %6 = load ptr, ptr %3, align 8, !tbaa !40
  %7 = getelementptr inbounds nuw %struct.Iso_Man_t_, ptr %6, i32 0, i32 1
  %8 = load ptr, ptr %7, align 8, !tbaa !46
  %9 = ptrtoint ptr %5 to i64
  %10 = ptrtoint ptr %8 to i64
  %11 = sub i64 %9, %10
  %12 = sdiv exact i64 %11, 24
  %13 = trunc i64 %12 to i32
  ret i32 %13
}

; Function Attrs: inlinehint nounwind uwtable
define internal void @Vec_PtrFree(ptr noundef %0) #4 {
  %2 = alloca ptr, align 8
  store ptr %0, ptr %2, align 8, !tbaa !57
  %3 = load ptr, ptr %2, align 8, !tbaa !57
  %4 = getelementptr inbounds nuw %struct.Vec_Ptr_t_, ptr %3, i32 0, i32 2
  %5 = load ptr, ptr %4, align 8, !tbaa !61
  %6 = icmp ne ptr %5, null
  br i1 %6, label %7, label %13

7:                                                ; preds = %1
  %8 = load ptr, ptr %2, align 8, !tbaa !57
  %9 = getelementptr inbounds nuw %struct.Vec_Ptr_t_, ptr %8, i32 0, i32 2
  %10 = load ptr, ptr %9, align 8, !tbaa !61
  call void @free(ptr noundef %10) #11
  %11 = load ptr, ptr %2, align 8, !tbaa !57
  %12 = getelementptr inbounds nuw %struct.Vec_Ptr_t_, ptr %11, i32 0, i32 2
  store ptr null, ptr %12, align 8, !tbaa !61
  br label %14

13:                                               ; preds = %1
  br label %14

14:                                               ; preds = %13, %7
  %15 = load ptr, ptr %2, align 8, !tbaa !57
  %16 = icmp ne ptr %15, null
  br i1 %16, label %17, label %19

17:                                               ; preds = %14
  %18 = load ptr, ptr %2, align 8, !tbaa !57
  call void @free(ptr noundef %18) #11
  store ptr null, ptr %2, align 8, !tbaa !57
  br label %20

19:                                               ; preds = %14
  br label %20

20:                                               ; preds = %19, %17
  ret void
}

; Function Attrs: inlinehint nounwind uwtable
define internal ptr @Iso_ManObj(ptr noundef %0, i32 noundef %1) #4 {
  %3 = alloca ptr, align 8
  %4 = alloca i32, align 4
  store ptr %0, ptr %3, align 8, !tbaa !40
  store i32 %1, ptr %4, align 4, !tbaa !8
  %5 = load i32, ptr %4, align 4, !tbaa !8
  %6 = icmp ne i32 %5, 0
  br i1 %6, label %7, label %14

7:                                                ; preds = %2
  %8 = load ptr, ptr %3, align 8, !tbaa !40
  %9 = getelementptr inbounds nuw %struct.Iso_Man_t_, ptr %8, i32 0, i32 1
  %10 = load ptr, ptr %9, align 8, !tbaa !46
  %11 = load i32, ptr %4, align 4, !tbaa !8
  %12 = sext i32 %11 to i64
  %13 = getelementptr inbounds %struct.Iso_Obj_t_, ptr %10, i64 %12
  br label %15

14:                                               ; preds = %2
  br label %15

15:                                               ; preds = %14, %7
  %16 = phi ptr [ %13, %7 ], [ null, %14 ]
  ret ptr %16
}

; Function Attrs: inlinehint nounwind uwtable
define internal void @Vec_PtrPush(ptr noundef %0, ptr noundef %1) #4 {
  %3 = alloca ptr, align 8
  %4 = alloca ptr, align 8
  store ptr %0, ptr %3, align 8, !tbaa !57
  store ptr %1, ptr %4, align 8, !tbaa !79
  %5 = load ptr, ptr %3, align 8, !tbaa !57
  %6 = getelementptr inbounds nuw %struct.Vec_Ptr_t_, ptr %5, i32 0, i32 1
  %7 = load i32, ptr %6, align 4, !tbaa !58
  %8 = load ptr, ptr %3, align 8, !tbaa !57
  %9 = getelementptr inbounds nuw %struct.Vec_Ptr_t_, ptr %8, i32 0, i32 0
  %10 = load i32, ptr %9, align 8, !tbaa !60
  %11 = icmp eq i32 %7, %10
  br i1 %11, label %12, label %26

12:                                               ; preds = %2
  %13 = load ptr, ptr %3, align 8, !tbaa !57
  %14 = getelementptr inbounds nuw %struct.Vec_Ptr_t_, ptr %13, i32 0, i32 0
  %15 = load i32, ptr %14, align 8, !tbaa !60
  %16 = icmp slt i32 %15, 16
  br i1 %16, label %17, label %19

17:                                               ; preds = %12
  %18 = load ptr, ptr %3, align 8, !tbaa !57
  call void @Vec_PtrGrow(ptr noundef %18, i32 noundef 16)
  br label %25

19:                                               ; preds = %12
  %20 = load ptr, ptr %3, align 8, !tbaa !57
  %21 = load ptr, ptr %3, align 8, !tbaa !57
  %22 = getelementptr inbounds nuw %struct.Vec_Ptr_t_, ptr %21, i32 0, i32 0
  %23 = load i32, ptr %22, align 8, !tbaa !60
  %24 = mul nsw i32 2, %23
  call void @Vec_PtrGrow(ptr noundef %20, i32 noundef %24)
  br label %25

25:                                               ; preds = %19, %17
  br label %26

26:                                               ; preds = %25, %2
  %27 = load ptr, ptr %4, align 8, !tbaa !79
  %28 = load ptr, ptr %3, align 8, !tbaa !57
  %29 = getelementptr inbounds nuw %struct.Vec_Ptr_t_, ptr %28, i32 0, i32 2
  %30 = load ptr, ptr %29, align 8, !tbaa !61
  %31 = load ptr, ptr %3, align 8, !tbaa !57
  %32 = getelementptr inbounds nuw %struct.Vec_Ptr_t_, ptr %31, i32 0, i32 1
  %33 = load i32, ptr %32, align 4, !tbaa !58
  %34 = add nsw i32 %33, 1
  store i32 %34, ptr %32, align 4, !tbaa !58
  %35 = sext i32 %33 to i64
  %36 = getelementptr inbounds ptr, ptr %30, i64 %35
  store ptr %27, ptr %36, align 8, !tbaa !79
  ret void
}

; Function Attrs: inlinehint nounwind uwtable
define internal ptr @Iso_AigObj(ptr noundef %0, ptr noundef %1) #4 {
  %3 = alloca ptr, align 8
  %4 = alloca ptr, align 8
  store ptr %0, ptr %3, align 8, !tbaa !40
  store ptr %1, ptr %4, align 8, !tbaa !69
  %5 = load ptr, ptr %3, align 8, !tbaa !40
  %6 = getelementptr inbounds nuw %struct.Iso_Man_t_, ptr %5, i32 0, i32 0
  %7 = load ptr, ptr %6, align 8, !tbaa !42
  %8 = load ptr, ptr %3, align 8, !tbaa !40
  %9 = load ptr, ptr %4, align 8, !tbaa !69
  %10 = call i32 @Iso_ObjId(ptr noundef %8, ptr noundef %9)
  %11 = call ptr @Aig_ManObj(ptr noundef %7, i32 noundef %10)
  ret ptr %11
}

; Function Attrs: inlinehint nounwind uwtable
define internal ptr @Vec_PtrEntry(ptr noundef %0, i32 noundef %1) #4 {
  %3 = alloca ptr, align 8
  %4 = alloca i32, align 4
  store ptr %0, ptr %3, align 8, !tbaa !57
  store i32 %1, ptr %4, align 4, !tbaa !8
  %5 = load ptr, ptr %3, align 8, !tbaa !57
  %6 = getelementptr inbounds nuw %struct.Vec_Ptr_t_, ptr %5, i32 0, i32 2
  %7 = load ptr, ptr %6, align 8, !tbaa !61
  %8 = load i32, ptr %4, align 4, !tbaa !8
  %9 = sext i32 %8 to i64
  %10 = getelementptr inbounds ptr, ptr %7, i64 %9
  %11 = load ptr, ptr %10, align 8, !tbaa !79
  ret ptr %11
}

; Function Attrs: inlinehint nounwind uwtable
define internal ptr @Vec_PtrAlloc(i32 noundef %0) #4 {
  %2 = alloca i32, align 4
  %3 = alloca ptr, align 8
  store i32 %0, ptr %2, align 4, !tbaa !8
  call void @llvm.lifetime.start.p0(i64 8, ptr %3) #11
  %4 = call noalias ptr @malloc(i64 noundef 16) #13
  store ptr %4, ptr %3, align 8, !tbaa !57
  %5 = load i32, ptr %2, align 4, !tbaa !8
  %6 = icmp sgt i32 %5, 0
  br i1 %6, label %7, label %11

7:                                                ; preds = %1
  %8 = load i32, ptr %2, align 4, !tbaa !8
  %9 = icmp slt i32 %8, 8
  br i1 %9, label %10, label %11

10:                                               ; preds = %7
  store i32 8, ptr %2, align 4, !tbaa !8
  br label %11

11:                                               ; preds = %10, %7, %1
  %12 = load ptr, ptr %3, align 8, !tbaa !57
  %13 = getelementptr inbounds nuw %struct.Vec_Ptr_t_, ptr %12, i32 0, i32 1
  store i32 0, ptr %13, align 4, !tbaa !58
  %14 = load i32, ptr %2, align 4, !tbaa !8
  %15 = load ptr, ptr %3, align 8, !tbaa !57
  %16 = getelementptr inbounds nuw %struct.Vec_Ptr_t_, ptr %15, i32 0, i32 0
  store i32 %14, ptr %16, align 8, !tbaa !60
  %17 = load ptr, ptr %3, align 8, !tbaa !57
  %18 = getelementptr inbounds nuw %struct.Vec_Ptr_t_, ptr %17, i32 0, i32 0
  %19 = load i32, ptr %18, align 8, !tbaa !60
  %20 = icmp ne i32 %19, 0
  br i1 %20, label %21, label %28

21:                                               ; preds = %11
  %22 = load ptr, ptr %3, align 8, !tbaa !57
  %23 = getelementptr inbounds nuw %struct.Vec_Ptr_t_, ptr %22, i32 0, i32 0
  %24 = load i32, ptr %23, align 8, !tbaa !60
  %25 = sext i32 %24 to i64
  %26 = mul i64 8, %25
  %27 = call noalias ptr @malloc(i64 noundef %26) #13
  br label %29

28:                                               ; preds = %11
  br label %29

29:                                               ; preds = %28, %21
  %30 = phi ptr [ %27, %21 ], [ null, %28 ]
  %31 = load ptr, ptr %3, align 8, !tbaa !57
  %32 = getelementptr inbounds nuw %struct.Vec_Ptr_t_, ptr %31, i32 0, i32 2
  store ptr %30, ptr %32, align 8, !tbaa !61
  %33 = load ptr, ptr %3, align 8, !tbaa !57
  call void @llvm.lifetime.end.p0(i64 8, ptr %3) #11
  ret ptr %33
}

; Function Attrs: nounwind uwtable
define void @Iso_ManDumpOneClass(ptr noundef %0) #0 {
  %2 = alloca ptr, align 8
  %3 = alloca ptr, align 8
  %4 = alloca ptr, align 8
  %5 = alloca ptr, align 8
  %6 = alloca ptr, align 8
  store ptr %0, ptr %2, align 8, !tbaa !40
  call void @llvm.lifetime.start.p0(i64 8, ptr %3) #11
  %7 = call ptr @Vec_PtrAlloc(i32 noundef 100)
  store ptr %7, ptr %3, align 8, !tbaa !57
  call void @llvm.lifetime.start.p0(i64 8, ptr %4) #11
  call void @llvm.lifetime.start.p0(i64 8, ptr %5) #11
  call void @llvm.lifetime.start.p0(i64 8, ptr %6) #11
  store ptr null, ptr %6, align 8, !tbaa !21
  %8 = load ptr, ptr %2, align 8, !tbaa !40
  %9 = getelementptr inbounds nuw %struct.Iso_Man_t_, ptr %8, i32 0, i32 10
  %10 = load ptr, ptr %9, align 8, !tbaa !50
  %11 = call ptr @Vec_PtrEntry(ptr noundef %10, i32 noundef 0)
  store ptr %11, ptr %4, align 8, !tbaa !69
  %12 = load ptr, ptr %4, align 8, !tbaa !69
  store ptr %12, ptr %5, align 8, !tbaa !69
  br label %13

13:                                               ; preds = %21, %1
  %14 = load ptr, ptr %5, align 8, !tbaa !69
  %15 = icmp ne ptr %14, null
  br i1 %15, label %16, label %27

16:                                               ; preds = %13
  %17 = load ptr, ptr %3, align 8, !tbaa !57
  %18 = load ptr, ptr %2, align 8, !tbaa !40
  %19 = load ptr, ptr %5, align 8, !tbaa !69
  %20 = call ptr @Iso_AigObj(ptr noundef %18, ptr noundef %19)
  call void @Vec_PtrPush(ptr noundef %17, ptr noundef %20)
  br label %21

21:                                               ; preds = %16
  %22 = load ptr, ptr %2, align 8, !tbaa !40
  %23 = load ptr, ptr %5, align 8, !tbaa !69
  %24 = getelementptr inbounds nuw %struct.Iso_Obj_t_, ptr %23, i32 0, i32 4
  %25 = load i32, ptr %24, align 4, !tbaa !72
  %26 = call ptr @Iso_ManObj(ptr noundef %22, i32 noundef %25)
  store ptr %26, ptr %5, align 8, !tbaa !69
  br label %13, !llvm.loop !119

27:                                               ; preds = %13
  %28 = load ptr, ptr %2, align 8, !tbaa !40
  %29 = getelementptr inbounds nuw %struct.Iso_Man_t_, ptr %28, i32 0, i32 0
  %30 = load ptr, ptr %29, align 8, !tbaa !42
  %31 = load ptr, ptr %3, align 8, !tbaa !57
  %32 = call ptr @Aig_ManDupNodes(ptr noundef %30, ptr noundef %31)
  store ptr %32, ptr %6, align 8, !tbaa !21
  %33 = load ptr, ptr %3, align 8, !tbaa !57
  call void @Vec_PtrFree(ptr noundef %33)
  %34 = load ptr, ptr %6, align 8, !tbaa !21
  call void @Aig_ManShow(ptr noundef %34, i32 noundef 0, ptr noundef null)
  call void @Aig_ManStopP(ptr noundef %6)
  call void @llvm.lifetime.end.p0(i64 8, ptr %6) #11
  call void @llvm.lifetime.end.p0(i64 8, ptr %5) #11
  call void @llvm.lifetime.end.p0(i64 8, ptr %4) #11
  call void @llvm.lifetime.end.p0(i64 8, ptr %3) #11
  ret void
}