; Function Attrs: nounwind uwtable
define void @Iso_ManDumpOneClass(ptr noundef readonly captures(none) %0) local_unnamed_addr #0 {
  %2 = alloca ptr, align 8
  %3 = tail call noalias dereferenceable_or_null(16) ptr @malloc(i64 noundef 16) #25
  %4 = getelementptr inbounds nuw i8, ptr %3, i64 4
  store i32 0, ptr %4, align 4, !tbaa !38
  store i32 100, ptr %3, align 8, !tbaa !46
  %5 = tail call noalias dereferenceable_or_null(800) ptr @malloc(i64 noundef 800) #25
  %6 = getelementptr inbounds nuw i8, ptr %3, i64 8
  store ptr %5, ptr %6, align 8, !tbaa !47
  call void @llvm.lifetime.start.p0(i64 8, ptr nonnull %2) #23
  %7 = getelementptr inbounds nuw i8, ptr %0, i64 56
  %8 = load ptr, ptr %7, align 8, !tbaa !49
  %9 = getelementptr i8, ptr %8, i64 8
  %.val = load ptr, ptr %9, align 8, !tbaa !47
  %10 = load ptr, ptr %.val, align 8, !tbaa !67
  %.not14 = icmp eq ptr %10, null
  br i1 %.not14, label %._crit_edge, label %.lr.ph

.lr.ph:                                           ; preds = %1
  %11 = getelementptr i8, ptr %0, i64 8
  br label %12

12:                                               ; preds = %Iso_ManObj.exit, %.lr.ph
  %13 = phi i32 [ 100, %.lr.ph ], [ %47, %Iso_ManObj.exit ]
  %14 = phi i32 [ 0, %.lr.ph ], [ %49, %Iso_ManObj.exit ]
  %.015 = phi ptr [ %10, %.lr.ph ], [ %56, %Iso_ManObj.exit ]
  %.val11 = load ptr, ptr %0, align 8, !tbaa !34
  %15 = getelementptr i8, ptr %.val11, i64 32
  %.val11.val = load ptr, ptr %15, align 8, !tbaa !37
  %.not.i.i = icmp eq ptr %.val11.val, null
  br i1 %.not.i.i, label %Iso_AigObj.exit, label %16

16:                                               ; preds = %12
  %.val12 = load ptr, ptr %11, align 8, !tbaa !41
  %17 = ptrtoint ptr %.015 to i64
  %18 = ptrtoint ptr %.val12 to i64
  %19 = sub i64 %17, %18
  %20 = sdiv exact i64 %19, 24
  %21 = getelementptr i8, ptr %.val11.val, i64 8
  %.val.i.i = load ptr, ptr %21, align 8, !tbaa !47
  %sext.i = shl i64 %20, 32
  %22 = ashr exact i64 %sext.i, 29
  %23 = getelementptr inbounds i8, ptr %.val.i.i, i64 %22
  %24 = load ptr, ptr %23, align 8, !tbaa !67
  br label %Iso_AigObj.exit

Iso_AigObj.exit:                                  ; preds = %12, %16
  %25 = phi ptr [ %24, %16 ], [ null, %12 ]
  %26 = icmp eq i32 %14, %13
  br i1 %26, label %27, label %.Vec_PtrGrow.exit11_crit_edge.i

.Vec_PtrGrow.exit11_crit_edge.i:                  ; preds = %Iso_AigObj.exit
  %.pre.i = load ptr, ptr %6, align 8, !tbaa !47
  br label %Vec_PtrPush.exit

27:                                               ; preds = %Iso_AigObj.exit
  %28 = icmp slt i32 %13, 16
  br i1 %28, label %29, label %36

29:                                               ; preds = %27
  %30 = load ptr, ptr %6, align 8, !tbaa !47
  %.not9.i.i = icmp eq ptr %30, null
  br i1 %.not9.i.i, label %33, label %31

31:                                               ; preds = %29
  %32 = tail call dereferenceable_or_null(128) ptr @realloc(ptr noundef nonnull %30, i64 noundef 128) #27
  br label %Vec_PtrGrow.exit.i

33:                                               ; preds = %29
  %34 = tail call noalias dereferenceable_or_null(128) ptr @malloc(i64 noundef 128) #25
  br label %Vec_PtrGrow.exit.i

Vec_PtrGrow.exit.i:                               ; preds = %33, %31
  %35 = phi ptr [ %32, %31 ], [ %34, %33 ]
  store ptr %35, ptr %6, align 8, !tbaa !47
  store i32 16, ptr %3, align 8, !tbaa !46
  br label %Vec_PtrPush.exit

36:                                               ; preds = %27
  %37 = shl nuw nsw i32 %13, 1
  %38 = load ptr, ptr %6, align 8, !tbaa !47
  %.not9.i10.i = icmp eq ptr %38, null
  %39 = zext nneg i32 %37 to i64
  %40 = shl nuw nsw i64 %39, 3
  br i1 %.not9.i10.i, label %43, label %41

41:                                               ; preds = %36
  %42 = tail call ptr @realloc(ptr noundef nonnull %38, i64 noundef %40) #27
  br label %45

43:                                               ; preds = %36
  %44 = tail call noalias ptr @malloc(i64 noundef %40) #25
  br label %45

45:                                               ; preds = %43, %41
  %46 = phi ptr [ %42, %41 ], [ %44, %43 ]
  store ptr %46, ptr %6, align 8, !tbaa !47
  store i32 %37, ptr %3, align 8, !tbaa !46
  br label %Vec_PtrPush.exit

Vec_PtrPush.exit:                                 ; preds = %.Vec_PtrGrow.exit11_crit_edge.i, %Vec_PtrGrow.exit.i, %45
  %47 = phi i32 [ %13, %.Vec_PtrGrow.exit11_crit_edge.i ], [ %37, %45 ], [ 16, %Vec_PtrGrow.exit.i ]
  %48 = phi ptr [ %.pre.i, %.Vec_PtrGrow.exit11_crit_edge.i ], [ %46, %45 ], [ %35, %Vec_PtrGrow.exit.i ]
  %49 = add nuw nsw i32 %14, 1
  store i32 %49, ptr %4, align 4, !tbaa !38
  %50 = zext nneg i32 %14 to i64
  %51 = getelementptr inbounds nuw ptr, ptr %48, i64 %50
  store ptr %25, ptr %51, align 8, !tbaa !67
  %52 = getelementptr inbounds nuw i8, ptr %.015, i64 16
  %53 = load i32, ptr %52, align 4, !tbaa !65
  %.not.i = icmp eq i32 %53, 0
  br i1 %.not.i, label %._crit_edge, label %Iso_ManObj.exit

Iso_ManObj.exit:                                  ; preds = %Vec_PtrPush.exit
  %54 = load ptr, ptr %11, align 8, !tbaa !41
  %55 = sext i32 %53 to i64
  %56 = getelementptr inbounds %struct.Iso_Obj_t_, ptr %54, i64 %55
  br label %12, !llvm.loop !114

._crit_edge:                                      ; preds = %Vec_PtrPush.exit, %1
  %57 = load ptr, ptr %0, align 8, !tbaa !34
  %58 = tail call ptr @Aig_ManDupNodes(ptr noundef %57, ptr noundef nonnull %3) #23
  store ptr %58, ptr %2, align 8, !tbaa !115
  %59 = load ptr, ptr %6, align 8, !tbaa !47
  %.not.i13 = icmp eq ptr %59, null
  br i1 %.not.i13, label %Vec_PtrFree.exit, label %60

60:                                               ; preds = %._crit_edge
  tail call void @free(ptr noundef nonnull %59) #23
  br label %Vec_PtrFree.exit

Vec_PtrFree.exit:                                 ; preds = %._crit_edge, %60
  tail call void @free(ptr noundef nonnull %3) #23
  tail call void @Aig_ManShow(ptr noundef %58, i32 noundef 0, ptr noundef null) #23
  call void @Aig_ManStopP(ptr noundef nonnull %2) #23
  call void @llvm.lifetime.end.p0(i64 8, ptr nonnull %2) #23
  ret void
}